target datalayout = "e-m:e-p270:32:32-p271:32:32-p272:64:64-i64:64-i128:128-f80:128-n8:16:32:64-S128"
target triple = "x86_64-pc-linux-gnu"

%struct.GCRef = type { i64 }
%struct.MRef = type { i64 }
%struct.GCproto = type { %struct.GCRef, i8, i8, i8, i8, i32, i32, %struct.GCRef, %struct.MRef, %struct.MRef, i32, i32, i32, i8, i8, i16, %struct.GCRef, i32, i32, %struct.MRef, %struct.MRef, %struct.MRef }

; Function Attrs: nounwind uwtable
define hidden void @lj_trace_reenableproto(ptr noundef %0) #3 {
  %2 = alloca ptr, align 8
  %3 = alloca ptr, align 8
  %4 = alloca i32, align 4
  %5 = alloca i32, align 4
  %6 = alloca i32, align 4
  store ptr %0, ptr %2, align 8, !tbaa !64
  %7 = load ptr, ptr %2, align 8, !tbaa !64
  %8 = getelementptr inbounds nuw %struct.GCproto, ptr %7, i32 0, i32 14
  %9 = load i8, ptr %8, align 1, !tbaa !65
  %10 = zext i8 %9 to i32
  %11 = and i32 %10, 16
  %12 = icmp ne i32 %11, 0
  br i1 %12, label %13, label %69

13:                                               ; preds = %1
  call void @llvm.lifetime.start.p0(i64 8, ptr %3) #11
  %14 = load ptr, ptr %2, align 8, !tbaa !64
  %15 = getelementptr inbounds nuw i8, ptr %14, i64 104
  store ptr %15, ptr %3, align 8, !tbaa !67
  call void @llvm.lifetime.start.p0(i64 4, ptr %4) #11
  call void @llvm.lifetime.start.p0(i64 4, ptr %5) #11
  %16 = load ptr, ptr %2, align 8, !tbaa !64
  %17 = getelementptr inbounds nuw %struct.GCproto, ptr %16, i32 0, i32 5
  %18 = load i32, ptr %17, align 4, !tbaa !68
  store i32 %18, ptr %5, align 4, !tbaa !9
  %19 = load ptr, ptr %2, align 8, !tbaa !64
  %20 = getelementptr inbounds nuw %struct.GCproto, ptr %19, i32 0, i32 14
  %21 = load i8, ptr %20, align 1, !tbaa !65
  %22 = zext i8 %21 to i32
  %23 = and i32 %22, -17
  %24 = trunc i32 %23 to i8
  store i8 %24, ptr %20, align 1, !tbaa !65
  %25 = load ptr, ptr %3, align 8, !tbaa !67
  %26 = getelementptr inbounds i32, ptr %25, i64 0
  %27 = load i32, ptr %26, align 4, !tbaa !9
  %28 = and i32 %27, 255
  %29 = icmp eq i32 %28, 90
  br i1 %29, label %30, label %34

30:                                               ; preds = %13
  %31 = load ptr, ptr %3, align 8, !tbaa !67
  %32 = getelementptr inbounds i32, ptr %31, i64 0
  %33 = getelementptr inbounds i8, ptr %32, i64 0
  store i8 89, ptr %33, align 1, !tbaa !11
  br label %34

34:                                               ; preds = %30, %13
  store i32 1, ptr %4, align 4, !tbaa !9
  br label %35

35:                                               ; preds = %65, %34
  %36 = load i32, ptr %4, align 4, !tbaa !9
  %37 = load i32, ptr %5, align 4, !tbaa !9
  %38 = icmp ult i32 %36, %37
  br i1 %38, label %39, label %68

39:                                               ; preds = %35
  call void @llvm.lifetime.start.p0(i64 4, ptr %6) #11
  %40 = load ptr, ptr %3, align 8, !tbaa !67
  %41 = load i32, ptr %4, align 4, !tbaa !9
  %42 = zext i32 %41 to i64
  %43 = getelementptr inbounds nuw i32, ptr %40, i64 %42
  %44 = load i32, ptr %43, align 4, !tbaa !9
  %45 = and i32 %44, 255
  store i32 %45, ptr %6, align 4, !tbaa !9
  %46 = load i32, ptr %6, align 4, !tbaa !9
  %47 = icmp eq i32 %46, 80
  br i1 %47, label %54, label %48

48:                                               ; preds = %39
  %49 = load i32, ptr %6, align 4, !tbaa !9
  %50 = icmp eq i32 %49, 83
  br i1 %50, label %54, label %51

51:                                               ; preds = %48
  %52 = load i32, ptr %6, align 4, !tbaa !9
  %53 = icmp eq i32 %52, 86
  br i1 %53, label %54, label %64

54:                                               ; preds = %51, %48, %39
  %55 = load i32, ptr %6, align 4, !tbaa !9
  %56 = add nsw i32 %55, 85
  %57 = sub nsw i32 %56, 86
  %58 = trunc i32 %57 to i8
  %59 = load ptr, ptr %3, align 8, !tbaa !67
  %60 = load i32, ptr %4, align 4, !tbaa !9
  %61 = zext i32 %60 to i64
  %62 = getelementptr inbounds nuw i32, ptr %59, i64 %61
  %63 = getelementptr inbounds i8, ptr %62, i64 0
  store i8 %58, ptr %63, align 1, !tbaa !11
  br label %64

64:                                               ; preds = %54, %51
  call void @llvm.lifetime.end.p0(i64 4, ptr %6) #11
  br label %65

65:                                               ; preds = %64
  %66 = load i32, ptr %4, align 4, !tbaa !9
  %67 = add i32 %66, 1
  store i32 %67, ptr %4, align 4, !tbaa !9
  br label %35, !llvm.loop !69

68:                                               ; preds = %35
  call void @llvm.lifetime.end.p0(i64 4, ptr %5) #11
  call void @llvm.lifetime.end.p0(i64 4, ptr %4) #11
  call void @llvm.lifetime.end.p0(i64 8, ptr %3) #11
  br label %69

69:                                               ; preds = %68, %1
  ret void
}