; Function Attrs: nofree norecurse nosync nounwind memory(argmem: readwrite) uwtable
define hidden void @lj_trace_reenableproto(ptr noundef captures(none) %0) local_unnamed_addr #6 {
  %2 = getelementptr inbounds nuw i8, ptr %0, i64 61
  %3 = load i8, ptr %2, align 1, !tbaa !53
  %4 = and i8 %3, 16
  %.not = icmp eq i8 %4, 0
  br i1 %.not, label %.loopexit, label %5

5:                                                ; preds = %1
  %6 = getelementptr inbounds nuw i8, ptr %0, i64 104
  %7 = getelementptr inbounds nuw i8, ptr %0, i64 12
  %8 = load i32, ptr %7, align 4, !tbaa !55
  %9 = and i8 %3, -17
  store i8 %9, ptr %2, align 1, !tbaa !53
  %10 = load i32, ptr %6, align 4, !tbaa !56
  %11 = and i32 %10, 255
  %12 = icmp eq i32 %11, 90
  br i1 %12, label %13, label %14

13:                                               ; preds = %5
  store i8 89, ptr %6, align 1, !tbaa !4
  br label %14

14:                                               ; preds = %13, %5
  %15 = icmp ugt i32 %8, 1
  br i1 %15, label %.lr.ph.preheader, label %.loopexit

.lr.ph.preheader:                                 ; preds = %14
  %wide.trip.count = zext i32 %8 to i64
  br label %.lr.ph

.lr.ph:                                           ; preds = %.lr.ph.preheader, %20
  %indvars.iv = phi i64 [ 1, %.lr.ph.preheader ], [ %indvars.iv.next, %20 ]
  %16 = getelementptr inbounds nuw i32, ptr %6, i64 %indvars.iv
  %17 = load i32, ptr %16, align 4, !tbaa !56
  %trunc = trunc i32 %17 to i8
  switch i8 %trunc, label %20 [
    i8 86, label %18
    i8 83, label %18
    i8 80, label %18
  ]

18:                                               ; preds = %.lr.ph, %.lr.ph, %.lr.ph
  %19 = add nsw i8 %trunc, -1
  store i8 %19, ptr %16, align 1, !tbaa !4
  br label %20

20:                                               ; preds = %.lr.ph, %18
  %indvars.iv.next = add nuw nsw i64 %indvars.iv, 1
  %exitcond.not = icmp eq i64 %indvars.iv.next, %wide.trip.count
  br i1 %exitcond.not, label %.loopexit, label %.lr.ph, !llvm.loop !57

.loopexit:                                        ; preds = %20, %14, %1
  ret void
}